; Function Attrs: mustprogress uwtable
define void @_ZN23FilterExpressionToolBar15onFilterDroppedE7QStringS0_(ptr noundef nonnull align 8 dereferenceable(52) %0, ptr noundef %1, ptr noundef %2) #0 align 2 personality ptr @__gxx_personality_v0 {
  %4 = alloca %struct.filter_expression_data, align 8
  %5 = alloca %class.QByteArray, align 8
  %6 = alloca %class.QByteArray, align 8
  %7 = alloca %class.QByteArray, align 8
  %8 = getelementptr inbounds i8, ptr %2, i64 16
  %9 = load i64, ptr %8, align 8
  %10 = icmp eq i64 %9, 0
  br i1 %10, label %38, label %11

11:                                               ; preds = %3
  call void @_ZN7QString13toUtf8_helperERKS_(ptr dead_on_unwind nonnull writable sret(%class.QByteArray) align 8 %5, ptr noundef nonnull align 8 dereferenceable(24) %1)
  %12 = getelementptr inbounds i8, ptr %5, i64 8
  %13 = load ptr, ptr %12, align 8
  %.not.i.i = icmp eq ptr %13, null
  %spec.select.i.i = select i1 %.not.i.i, ptr @_ZN10QByteArray6_emptyE, ptr %13
  invoke void @_ZN7QString13toUtf8_helperERKS_(ptr dead_on_unwind nonnull writable sret(%class.QByteArray) align 8 %6, ptr noundef nonnull align 8 dereferenceable(24) %2)
          to label %14 unwind label %39

14:                                               ; preds = %11
  %15 = getelementptr inbounds i8, ptr %6, i64 8
  %16 = load ptr, ptr %15, align 8
  invoke void @_ZN7QString13toUtf8_helperERKS_(ptr dead_on_unwind nonnull writable sret(%class.QByteArray) align 8 %7, ptr noundef nonnull align 8 dereferenceable(24) %1)
          to label %17 unwind label %41

17:                                               ; preds = %14
  %.not.i.i6 = icmp eq ptr %16, null
  %spec.select.i.i7 = select i1 %.not.i.i6, ptr @_ZN10QByteArray6_emptyE, ptr %16
  %18 = getelementptr inbounds i8, ptr %7, i64 8
  %19 = load ptr, ptr %18, align 8
  %.not.i.i9 = icmp eq ptr %19, null
  %spec.select.i.i10 = select i1 %.not.i.i9, ptr @_ZN10QByteArray6_emptyE, ptr %19
  %20 = invoke ptr @filter_expression_new(ptr noundef nonnull %spec.select.i.i, ptr noundef nonnull %spec.select.i.i7, ptr noundef nonnull %spec.select.i.i10, i32 noundef 1)
          to label %21 unwind label %43

21:                                               ; preds = %17
  %22 = load ptr, ptr %7, align 8
  %.not.i.i.i = icmp eq ptr %22, null
  br i1 %.not.i.i.i, label %_ZN10QByteArrayD2Ev.exit, label %_ZN17QArrayDataPointerIcE5derefEv.exit.i.i

_ZN17QArrayDataPointerIcE5derefEv.exit.i.i:       ; preds = %21
  %23 = atomicrmw sub ptr %22, i32 1 seq_cst, align 4
  %.not.i.i11 = icmp eq i32 %23, 1
  br i1 %.not.i.i11, label %24, label %_ZN10QByteArrayD2Ev.exit

24:                                               ; preds = %_ZN17QArrayDataPointerIcE5derefEv.exit.i.i
  %25 = load ptr, ptr %7, align 8
  call void @_ZN10QArrayData10deallocateEPS_xx(ptr noundef %25, i64 noundef 1, i64 noundef 8) #16
  br label %_ZN10QByteArrayD2Ev.exit

_ZN10QByteArrayD2Ev.exit:                         ; preds = %21, %_ZN17QArrayDataPointerIcE5derefEv.exit.i.i, %24
  %26 = load ptr, ptr %6, align 8
  %.not.i.i.i12 = icmp eq ptr %26, null
  br i1 %.not.i.i.i12, label %_ZN10QByteArrayD2Ev.exit15, label %_ZN17QArrayDataPointerIcE5derefEv.exit.i.i13

_ZN17QArrayDataPointerIcE5derefEv.exit.i.i13:     ; preds = %_ZN10QByteArrayD2Ev.exit
  %27 = atomicrmw sub ptr %26, i32 1 seq_cst, align 4
  %.not.i.i14 = icmp eq i32 %27, 1
  br i1 %.not.i.i14, label %28, label %_ZN10QByteArrayD2Ev.exit15

28:                                               ; preds = %_ZN17QArrayDataPointerIcE5derefEv.exit.i.i13
  %29 = load ptr, ptr %6, align 8
  call void @_ZN10QArrayData10deallocateEPS_xx(ptr noundef %29, i64 noundef 1, i64 noundef 8) #16
  br label %_ZN10QByteArrayD2Ev.exit15

_ZN10QByteArrayD2Ev.exit15:                       ; preds = %_ZN10QByteArrayD2Ev.exit, %_ZN17QArrayDataPointerIcE5derefEv.exit.i.i13, %28
  %30 = load ptr, ptr %5, align 8
  %.not.i.i.i16 = icmp eq ptr %30, null
  br i1 %.not.i.i.i16, label %_ZN10QByteArrayD2Ev.exit19, label %_ZN17QArrayDataPointerIcE5derefEv.exit.i.i17

_ZN17QArrayDataPointerIcE5derefEv.exit.i.i17:     ; preds = %_ZN10QByteArrayD2Ev.exit15
  %31 = atomicrmw sub ptr %30, i32 1 seq_cst, align 4
  %.not.i.i18 = icmp eq i32 %31, 1
  br i1 %.not.i.i18, label %32, label %_ZN10QByteArrayD2Ev.exit19

32:                                               ; preds = %_ZN17QArrayDataPointerIcE5derefEv.exit.i.i17
  %33 = load ptr, ptr %5, align 8
  call void @_ZN10QArrayData10deallocateEPS_xx(ptr noundef %33, i64 noundef 1, i64 noundef 8) #16
  br label %_ZN10QByteArrayD2Ev.exit19

_ZN10QByteArrayD2Ev.exit19:                       ; preds = %_ZN10QByteArrayD2Ev.exit15, %_ZN17QArrayDataPointerIcE5derefEv.exit.i.i17, %32
  call void @save_migrated_uat(ptr noundef nonnull @.str.4, ptr noundef nonnull getelementptr inbounds (%struct._e_prefs, ptr @prefs, i64 0, i32 81))
  call void @llvm.lifetime.start.p0(i64 16, ptr nonnull %4)
  store ptr %0, ptr %4, align 8
  %34 = getelementptr inbounds i8, ptr %4, i64 8
  store i8 0, ptr %34, align 8
  %35 = load ptr, ptr %0, align 8
  %36 = getelementptr inbounds i8, ptr %35, i64 424
  %37 = load ptr, ptr %36, align 8
  call void %37(ptr noundef nonnull align 8 dereferenceable(52) %0)
  call void @_ZN7QWidget17setUpdatesEnabledEb(ptr noundef nonnull align 8 dereferenceable(40) %0, i1 noundef zeroext false)
  call void @_ZN7QWidget4hideEv(ptr noundef nonnull align 8 dereferenceable(40) %0)
  call void @filter_expression_iterate_expressions(ptr noundef nonnull @_ZN23FilterExpressionToolBar28filter_expression_add_actionEPKvPvS2_, ptr noundef nonnull %4)
  call void @_ZN7QWidget4showEv(ptr noundef nonnull align 8 dereferenceable(40) %0)
  call void @_ZN7QWidget17setUpdatesEnabledEb(ptr noundef nonnull align 8 dereferenceable(40) %0, i1 noundef zeroext true)
  call void @llvm.lifetime.end.p0(i64 16, ptr nonnull %4)
  br label %38

38:                                               ; preds = %3, %_ZN10QByteArrayD2Ev.exit19
  ret void

39:                                               ; preds = %11
  %40 = landingpad { ptr, i32 }
          cleanup
  br label %_ZN10QByteArrayD2Ev.exit27

41:                                               ; preds = %14
  %42 = landingpad { ptr, i32 }
          cleanup
  br label %_ZN10QByteArrayD2Ev.exit23

43:                                               ; preds = %17
  %44 = landingpad { ptr, i32 }
          cleanup
  %45 = load ptr, ptr %7, align 8
  %.not.i.i.i20 = icmp eq ptr %45, null
  br i1 %.not.i.i.i20, label %_ZN10QByteArrayD2Ev.exit23, label %_ZN17QArrayDataPointerIcE5derefEv.exit.i.i21

_ZN17QArrayDataPointerIcE5derefEv.exit.i.i21:     ; preds = %43
  %46 = atomicrmw sub ptr %45, i32 1 seq_cst, align 4
  %.not.i.i22 = icmp eq i32 %46, 1
  br i1 %.not.i.i22, label %47, label %_ZN10QByteArrayD2Ev.exit23

47:                                               ; preds = %_ZN17QArrayDataPointerIcE5derefEv.exit.i.i21
  %48 = load ptr, ptr %7, align 8
  call void @_ZN10QArrayData10deallocateEPS_xx(ptr noundef %48, i64 noundef 1, i64 noundef 8) #16
  br label %_ZN10QByteArrayD2Ev.exit23

_ZN10QByteArrayD2Ev.exit23:                       ; preds = %47, %_ZN17QArrayDataPointerIcE5derefEv.exit.i.i21, %43, %41
  %.pn = phi { ptr, i32 } [ %42, %41 ], [ %44, %43 ], [ %44, %_ZN17QArrayDataPointerIcE5derefEv.exit.i.i21 ], [ %44, %47 ]
  %49 = load ptr, ptr %6, align 8
  %.not.i.i.i24 = icmp eq ptr %49, null
  br i1 %.not.i.i.i24, label %_ZN10QByteArrayD2Ev.exit27, label %_ZN17QArrayDataPointerIcE5derefEv.exit.i.i25

_ZN17QArrayDataPointerIcE5derefEv.exit.i.i25:     ; preds = %_ZN10QByteArrayD2Ev.exit23
  %50 = atomicrmw sub ptr %49, i32 1 seq_cst, align 4
  %.not.i.i26 = icmp eq i32 %50, 1
  br i1 %.not.i.i26, label %51, label %_ZN10QByteArrayD2Ev.exit27

51:                                               ; preds = %_ZN17QArrayDataPointerIcE5derefEv.exit.i.i25
  %52 = load ptr, ptr %6, align 8
  call void @_ZN10QArrayData10deallocateEPS_xx(ptr noundef %52, i64 noundef 1, i64 noundef 8) #16
  br label %_ZN10QByteArrayD2Ev.exit27

_ZN10QByteArrayD2Ev.exit27:                       ; preds = %51, %_ZN17QArrayDataPointerIcE5derefEv.exit.i.i25, %_ZN10QByteArrayD2Ev.exit23, %39
  %.pn.pn = phi { ptr, i32 } [ %40, %39 ], [ %.pn, %_ZN10QByteArrayD2Ev.exit23 ], [ %.pn, %_ZN17QArrayDataPointerIcE5derefEv.exit.i.i25 ], [ %.pn, %51 ]
  %53 = load ptr, ptr %5, align 8
  %.not.i.i.i28 = icmp eq ptr %53, null
  br i1 %.not.i.i.i28, label %_ZN10QByteArrayD2Ev.exit31, label %_ZN17QArrayDataPointerIcE5derefEv.exit.i.i29

_ZN17QArrayDataPointerIcE5derefEv.exit.i.i29:     ; preds = %_ZN10QByteArrayD2Ev.exit27
  %54 = atomicrmw sub ptr %53, i32 1 seq_cst, align 4
  %.not.i.i30 = icmp eq i32 %54, 1
  br i1 %.not.i.i30, label %55, label %_ZN10QByteArrayD2Ev.exit31

55:                                               ; preds = %_ZN17QArrayDataPointerIcE5derefEv.exit.i.i29
  %56 = load ptr, ptr %5, align 8
  call void @_ZN10QArrayData10deallocateEPS_xx(ptr noundef %56, i64 noundef 1, i64 noundef 8) #16
  br label %_ZN10QByteArrayD2Ev.exit31

_ZN10QByteArrayD2Ev.exit31:                       ; preds = %_ZN10QByteArrayD2Ev.exit27, %_ZN17QArrayDataPointerIcE5derefEv.exit.i.i29, %55
  resume { ptr, i32 } %.pn.pn
}